; Function Attrs: mustprogress uwtable
define internal void @"_ZN5folly6detail8function14FunctionTraitsIFvvEE9callSmallIZN8proxygen27ServerIdleSessionController14getIdleSessionEvE3$_0EEvRNS1_4DataE"(ptr noundef nonnull align 16 dereferenceable(48) %p) #3 align 2 personality ptr @__gxx_personality_v0 {
entry:
  %ref.tmp.i.i = alloca %"class.folly::Try", align 8
  %0 = load ptr, ptr %p, align 16
  %call1.i.i.i.i.i = tail call noundef i32 @pthread_mutex_lock(ptr noundef nonnull %0) #19
  %tobool.not.i.i.i.i = icmp eq i32 %call1.i.i.i.i.i, 0
  br i1 %tobool.not.i.i.i.i, label %_ZN8proxygen27ServerIdleSessionController16isMarkedForDeathEv.exit.i, label %if.then.i.i.i.i

if.then.i.i.i.i:                                  ; preds = %entry
  tail call void @_ZSt20__throw_system_errori(i32 noundef %call1.i.i.i.i.i) #20
  unreachable

_ZN8proxygen27ServerIdleSessionController16isMarkedForDeathEv.exit.i: ; preds = %entry
  %markedForDeath_.i.i = getelementptr inbounds i8, ptr %0, i64 120
  %1 = load i8, ptr %markedForDeath_.i.i, align 8
  %2 = and i8 %1, 1
  %tobool.i.not.i = icmp eq i8 %2, 0
  %call1.i.i.i1.i.i = tail call noundef i32 @pthread_mutex_unlock(ptr noundef nonnull %0) #19
  br i1 %tobool.i.not.i, label %cond.end.i, label %if.end.i

cond.end.i:                                       ; preds = %_ZN8proxygen27ServerIdleSessionController16isMarkedForDeathEv.exit.i
  %3 = getelementptr inbounds i8, ptr %p, i64 8
  %4 = load ptr, ptr %3, align 8
  %call2.i = tail call noundef ptr @_ZN8proxygen11SessionPool23removeOldestIdleSessionEv(ptr noundef nonnull align 8 dereferenceable(136) %4)
  %tobool.not.i = icmp eq ptr %call2.i, null
  br i1 %tobool.not.i, label %if.end.i, label %if.then.i

if.then.i:                                        ; preds = %cond.end.i
  %vtable.i = load ptr, ptr %call2.i, align 8
  %vfn.i = getelementptr inbounds i8, ptr %vtable.i, i64 392
  %5 = load ptr, ptr %vfn.i, align 8
  tail call void %5(ptr noundef nonnull align 8 dereferenceable(1582) %call2.i, i1 noundef zeroext true)
  br label %if.end.i

if.end.i:                                         ; preds = %if.then.i, %cond.end.i, %_ZN8proxygen27ServerIdleSessionController16isMarkedForDeathEv.exit.i
  %cond3.i = phi ptr [ %call2.i, %if.then.i ], [ null, %cond.end.i ], [ null, %_ZN8proxygen27ServerIdleSessionController16isMarkedForDeathEv.exit.i ]
  %6 = getelementptr inbounds i8, ptr %p, i64 16
  call void @llvm.lifetime.start.p0(i64 16, ptr nonnull %ref.tmp.i.i)
  store i32 0, ptr %ref.tmp.i.i, align 8
  %7 = getelementptr inbounds i8, ptr %ref.tmp.i.i, i64 8
  store ptr %cond3.i, ptr %7, align 8
  invoke void @_ZN5folly7PromiseIPN8proxygen15HTTPSessionBaseEE6setTryEONS_3TryIS3_EE(ptr noundef nonnull align 8 dereferenceable(16) %6, ptr noundef nonnull align 8 dereferenceable(16) %ref.tmp.i.i)
          to label %invoke.cont.i.i unwind label %lpad.i.i

invoke.cont.i.i:                                  ; preds = %if.end.i
  %8 = load i32, ptr %ref.tmp.i.i, align 8
  %cond.i.i.i.i = icmp ne i32 %8, 1
  %9 = load ptr, ptr %7, align 8
  %tobool.not.i.i.i.i.i.i = icmp eq ptr %9, null
  %or.cond.i.i = select i1 %cond.i.i.i.i, i1 true, i1 %tobool.not.i.i.i.i.i.i
  br i1 %or.cond.i.i, label %"_ZZN8proxygen27ServerIdleSessionController14getIdleSessionEvEN3$_0clEv.exit", label %if.then.i.i.i.i.i.i

if.then.i.i.i.i.i.i:                              ; preds = %invoke.cont.i.i
  call void @_ZNSt15__exception_ptr13exception_ptr10_M_releaseEv(ptr noundef nonnull align 8 dereferenceable(8) %7) #19
  br label %"_ZZN8proxygen27ServerIdleSessionController14getIdleSessionEvEN3$_0clEv.exit"

lpad.i.i:                                         ; preds = %if.end.i
  %10 = landingpad { ptr, i32 }
          cleanup
  %11 = load i32, ptr %ref.tmp.i.i, align 8
  %cond.i.i1.i.i = icmp ne i32 %11, 1
  %12 = load ptr, ptr %7, align 8
  %tobool.not.i.i.i.i3.i.i = icmp eq ptr %12, null
  %or.cond6.i.i = select i1 %cond.i.i1.i.i, i1 true, i1 %tobool.not.i.i.i.i3.i.i
  br i1 %or.cond6.i.i, label %_ZN5folly3TryIPN8proxygen15HTTPSessionBaseEED2Ev.exit5.i.i, label %if.then.i.i.i.i4.i.i

if.then.i.i.i.i4.i.i:                             ; preds = %lpad.i.i
  call void @_ZNSt15__exception_ptr13exception_ptr10_M_releaseEv(ptr noundef nonnull align 8 dereferenceable(8) %7) #19
  br label %_ZN5folly3TryIPN8proxygen15HTTPSessionBaseEED2Ev.exit5.i.i

_ZN5folly3TryIPN8proxygen15HTTPSessionBaseEED2Ev.exit5.i.i: ; preds = %if.then.i.i.i.i4.i.i, %lpad.i.i
  resume { ptr, i32 } %10

"_ZZN8proxygen27ServerIdleSessionController14getIdleSessionEvEN3$_0clEv.exit": ; preds = %invoke.cont.i.i, %if.then.i.i.i.i.i.i
  call void @llvm.lifetime.end.p0(i64 16, ptr nonnull %ref.tmp.i.i)
  ret void
}